(lp1
V/stephahensley/face/
p2
aV/aleyunderwood/face-%2B-hair/
p3
aV/kaleroxie/face/
p4
aV/moriahberryhill/face/
p5
aV/lizajginnings/face/
p6
aV/rushintospace/face/
p7
aV/artpropelled/about-face/
p8
aV/YouYingying/face/
p9
aV/jadestenhouse/face/
p10
aV/lachicadeoro/face/
p11
aV/Katie0verbeek/face/
p12
aV/carlykee/face/
p13
aV/moiminnie/face/
p14
aV/nikkirowe72/face/
p15
aV/mingmingtt/face/
p16
aV/olivia14k/face/
p17
aV/StarryCrazed/face/
p18
aV/sevensisterspdx/face/
p19
aV/felizardx/face/
p20
aV/pplaceman/face/
p21
aV/pzavala9/face/
p22
aV/anorthcook/face/
p23
aV/liaburkeglaser/face/
p24
aV/luv2bead34/face/
p25
aV/bls1628/face/
p26
aV/laurenbourquin/face/
p27
aV/JessCochraneArt/face/
p28
aV/Anastasx/face/
p29
aV/stfne_marie/face/
p30
aV/underJupkaMy/face/
p31
aV/chelsea4real/face/
p32
aV/elisxbxth_s/face/
p33
aV/cornwellcamilla/face/
p34
aV/nicholsondesign/face/
p35
aV/jainabrooke/face/
p36
aV/Shop34North/face/
p37
aV/ashilepriester/face/
p38
aV/adrienneberlin/face/
p39
aV/carina_s/face/
p40
aV/sharvey/face-paint/
p41
aV/shall06/face/
p42
aV/prohibition/face/
p43
aV/kenasyn/face/
p44
aV/drawing101/face/
p45
aV/lucyapple/face/
p46
aV/davinyaclark/face/
p47
aV/hellobardeaux/face/
p48
aV/melissacstover/face/
p49
aV/itsdarbykayaye/face/
p50
aV/brennay/face/
p51
aV/livkirby/face/
p52
aV/matildawoulfe/face/
p53
aV/birchbox/face/
p54
aV/daniellemarii/face/
p55
aV/mccallyr/face/
p56
aV/lelooleloup/face/
p57
aV/pieraluisa/face-time/
p58
aV/leahhofff/face/
p59
aV/foldinvites/face/
p60
aV/RefusalToComply/face/
p61
aV/meagandomangue/face/
p62
aV/anukabanuka/face/
p63
aV/romilavin/face/
p64
aV/deniseheartsxo/face/
p65
aV/broek1/face/
p66
aV/schmami/face/
p67
aV/guywithcamera/face/
p68
aV/miemonster/face/
p69
aV/mallybeauty/doll-face/
p70
aV/xandragirl/face/
p71
aV/Keatabigail/~face~/
p72
aV/bellabumble/face/
p73
aV/joomklangsin/face/
p74
aV/aklupp/face/
p75
aV/ldbabrooklyn/face-etc/
p76
aV/senicho2/face/
p77
aV/72paristexas/face/
p78
aV/meghan_olesen1/face/
p79
aV/alysonsredding/face/
p80
aV/thelaurenedit/face/
p81
aV/fefeee/face/
p82
aV/thoralora/face/
p83
aV/erobynjones/face/
p84
aV/natashakstokes/face/
p85
aV/jessicavittone/face/
p86
aV/halseyfeels/face/
p87
aV/xAliceRogers/face/
p88
aV/lorangebrown/face/
p89
aV/roxieferguson1/face/
p90
aV/isabellamtwo/face/
p91
aV/littlelard1421/face/
p92
aV/mrscwb/face/
p93
aV/haaalle/face/
p94
aV/applepaperplane/face/
p95
aV/laurencesimonci/face/
p96
aV/laurenbalingit/face/
p97
aV/erinkaetrimble/face/
p98
aV/raelynnfinch/face/
p99
aV/sinequanum/face/
p100
aV/11je12je/beautiful-face/
p101
aV/hilary_
p102
aV/daliabarja/face/
p103
aV/ionadelmar/face/
p104
aV/mselizabethcook/face/
p105
aV/marenelyce/face/
p106
aV/tinymountains/face/
p107
aV/alexxissabo/face/
p108
aV/littlemianmian/face/
p109
aV/jackbaradad/face/
p110
aV/mwwwwwwwwwm/face/
p111
aV/vajaranant/face/
p112
aV/MrsDevis/face/
p113
aV/autumnuhh/face/
p114
aV/thehambledon/face-it/
p115
aV/kickpleat/about-face/
p116
aV/miGUELHERRANZok/face/
p117
aV/saiserpas/face/
p118
aV/misslarkin/face/
p119
aV/lisasteindesign/face/
p120
aV/janelleeriksen/face/
p121
aV/flowerbydrew/face/
p122
aV/j2thee2thenny/face/
p123
aV/mfrogers/face/
p124
aV/valkyriedb/face/
p125
aV/alphachi/face/
p126
aV/kb2244/face/
p127
aV/clareplueckhahn/face/
p128
aV/sphphllps17/face/
p129
aV/sokcs85/face/
p130
aV/Klaravikel/face/
p131
aV/tiffanywhosis/face/
p132
aV/asiarose/face/
p133
aV/angieglaze2510/face/
p134
aV/manuelmir/face/
p135
aV/TessaGiberson/face/
p136
aV/clairebusby/face/
p137
aV/georgiafelop/face/
p138
aV/marcialoureiro/face/
p139
aV/cathleenbishop/face/
p140
aV/zeronis/face/
p141
aV/alyssadelanny/face/
p142
aV/jlinneaw/that-face/
p143
aV/soyahplant/face/
p144
aV/bond/face/
p145
aV/ffionwright/face/
p146
aV/cubsofwar/face/
p147
aV/kaitparkinson/face/
p148
aV/kat/face/
p149
aV/katehutson/face/
p150
aV/sarahallin/face/
p151
aV/lalar/face/
p152
aV/martaennes/%2B%2B-face-%2B%2B/
p153
aV/HelloVogue/face/
p154
aV/emsteps/face/
p155
aV/sarahhmrob/face/
p156
aV/xpuffystaticx/face/
p157
aV/royuh/face/
p158
aV/nicolefarrugia/face/
p159
aV/wardwalton/face/
p160
aV/savetheants/face/
p161
aV/Dv8nt1/face/
p162
aV/einateliash/face/
p163
aV/ahan90/face/
p164
aV/dgroom/face/
p165
aV/mandyshay/face/
p166
aV/g00fyness/face/
p167
aV/fixiwawa/face/
p168
aV/helsingfors67/face/
p169
aV/shelbydrews/face/
p170
aV/LydiaPhillips93/face/
p171
aV/alistairjacklyn/your-face/
p172
aV/paolocasti/face/
p173
aV/jrguerhard/face/
p174
aV/stephanyonabike/face/
p175
aV/thestylingline/face/
p176
aV/silogrimm/face/
p177
aV/gaylynlang/face/
p178
aV/theCV/face/
p179
aV/adriavaidila/face/
p180
aV/innafranco/face/
p181
aV/sandragerber/face/
p182
aV/johannasor/face/
p183
aV/markk/face/
p184
aV/christinejonas/face/
p185
aV/gwenhwyfar/face/
p186
aV/lmneal87/face/
p187
aV/littlestg/face/
p188
aV/99gg/face/
p189
aV/utopianmel/face/
p190
aV/sarazancotti/face/
p191
aV/heysarahfun/face/
p192
aV/afifaf/face/
p193
aV/laurelhardy2/face/
p194
aV/ashleylydia/face/
p195
aV/jvanifatieva/face/
p196
aV/junior/face/
p197
aV/ginnybranch/faces/
p198
aV/annaclaudia/face/
p199
aV/chanelsmom/face/
p200
aV/cutiekat0916/face/
p201
aV/atelierbrenda/face/
p202
aV/dazi88/face/
p203
aV/bellaabriellee/face/
p204
aV/hairlady74/face/
p205
aV/estherjlnoben/face/
p206
aV/idkmybffjes/face/
p207
aV/vicentete/face/
p208
aV/aimee_payne/face/
p209
aV/angelawhite/face/
p210
aV/SteevieKing2/face/
p211
aV/jeremyepstein/face/
p212
aV/elizabethmburns/face/
p213
aV/hannahnachemson/face/
p214
aV/13rm/face/
p215
aV/pizzapartay/face/
p216
aV/allheredeer/face/
p217
aV/sheandvie/face/
p218
aV/skingun/face/
p219
aV/daniellebilen/face/
p220
aV/indiamelu/face/
p221
aV/chisakofukuyama/face/
p222
aV/msjordankay/face/
p223
aV/drbrandt/face/
p224
aV/afs61/face/
p225
aV/angiedrhyme/face/
p226
aV/lexiedixon/face/
p227
aV/bettydorotik/face/
p228
aV/heatherlindam/face/
p229
aV/kornianne/face/
p230
aV/nelliestman/face/
p231
aV/aubreyjanae/face/
p232
aV/kazuohattori/face/
p233
aV/keyzmo/face/
p234
aV/beeebeeeb/face/
p235
aV/patpongteekayu/face/
p236
aV/Dongsookang/face/
p237
aV/geoffang/face/
p238
aV/bronzehearts/face-/
p239
aV/emanvel/face/
p240
aV/blackswanbrand/face/
p241
aV/virtuelsie/face/
p242
aV/margaret_c/face/
p243
aV/emmalionm/face/
p244
aV/nowerys81/face/
p245
aV/IdkBeYourself/face/
p246
aV/sylphswanky/face/
p247
aV/faeraee/face/
p248
aV/shantellesjub/face/
p249
aV/achukk/hair-face/
p250
aV/ycccos/face/
p251
aV/xliakimx/face-3/
p252
aV/Morannc/face/
p253
aV/noaec/face/
p254
aV/shopjuliamarie/face/
p255
aV/mollybridgwood/face/
p256
aV/algirdoart/face/
p257
aV/jessicalinton/face/
p258
aV/Tschabe/face/
p259
aV/nikki_lou_/face/
p260
aV/Formhelden/face/
p261
aV/uxxx/facenail/
p262
aV/likethejuice/face/
p263
aV/stormyday/face/
p264
aV/matthewdkenyon/face/
p265
aV/happysolez/face-and-beauty-products/
p266
aV/bubbybloom/face/
p267
aV/ashprincesa/face/
p268
aV/cathled/face/
p269
aV/empresswood/face/
p270
aV/tonirdguez/face-drawings/
p271
aV/andlyyli/face/
p272
aV/scaranta/face/
p273
aV/mdrcode/face/
p274
aV/olgabv1/face/
p275
aV/haleighvivion/face/
p276
aV/EmilyRosehey/face/
p277
aV/jaymeditto/doll-face/
p278
aV/liyabrook/face/
p279
aV/cynthiamittweg/face/
p280
aV/siouxxsiee/face/
p281
aV/rachelley/face/
p282
aV/foxtwins/face/
p283
aV/anniepetela/face/
p284
aV/adnanalabdali/face/
p285
aV/paulahanson/face/
p286
aV/thecatalog/face/
p287
aV/livvdiodato/face/
p288
aV/thesoundoholic/face/
p289
aV/marimac8/face/
p290
aV/toanquyen/face/
p291
aV/oohasparkley/face/
p292
aV/jordynlorenz/face/
p293
aV/nifossi/face/
p294
aV/andreapack1/face/
p295
aV/AlisonOdowski/face/
p296
aV/erincolton/face/
p297
aV/klwdd/face/
p298
aV/123beemarie/face/
p299
aV/bohemiandiesel/face/
p300
aV/amber102188/face/
p301
aV/morganb15/face/
p302
aV/jmcbride139/face/
p303
aV/CosmeticsKIKO/face/
p304
aV/Amarizeo/face/
p305
aV/crisslinn/face~/
p306
aV/emsmithson/face/
p307
aV/a1b1c1d1/face/
p308
aV/bueller/face/
p309
aV/oohlalatea/face/
p310
aV/jimenezcaballer/face/
p311
aV/maddiebrenton/face/
p312
aV/georgiagrdn/face/
p313
aV/monomania/face/
p314
aV/nataliabertova3/face/
p315
aV/audra6901/face/
p316
aV/trustic/face/
p317
aV/cicelysweed/face/
p318
aV/allibyrum/face/
p319
aV/rachelltz/face/
p320
aV/redposy/face/
p321
aV/280566th/face/
p322
aV/kalistalandry/face/
p323
aV/hopeedmondzon/face/
p324
aV/nylons/face/
p325
aV/mmwrigle/face/
p326
aV/susannahope/face/
p327
aV/coolcalmquiet/bldgface/
p328
aV/AInteriorDsign/face/
p329
aV/pkam/face/
p330
aV/villageliz/face/
p331
aV/k3llykaufman/face/
p332
aV/fionabooth/face/
p333
aV/ling000/face/
p334
aV/katiemccord/face/
p335
aV/viapetty/face/
p336
aV/wrinklesintime/face/
p337
aV/milliekatherine/face/
p338
aV/pindudette/face/
p339
aV/apcavalari/face/
p340
aV/gieanu/face/
p341
aV/richardmsteed/face/
p342
aV/katieashby/face/
p343
aV/lomakingg/f%2Bface/
p344
aV/amyprior/face/
p345
aV/sarahatsavage/face/
p346
aV/zuango/face/
p347
aV/aqiskincare/face/
p348
aV/TOYORI/face/
p349
aV/lanishipman/face/
p350
aV/marykelle/face/
p351
aV/Citygoblin/face/
p352
aV/whomakeit/face/
p353
aV/chelseavdbi/face/
p354
aV/damiriamachado/face/
p355
aV/erinmariejude/face/
p356
aV/twigsandhoney/face/
p357
aV/vivachaim/face/
p358
aV/threehours/face/
p359
aV/dpaz77/face/
p360
aV/ahimgina/face/
p361
aV/AdeleFox01/face/
p362
aV/studiogabe/faces/
p363
aV/franonumah/face/
p364
aV/STisdelStudio/face/
p365
aV/mermag/face/
p366
aV/inmysundaybest/face-paint/
p367
aV/SOCRATICJUNKIE/face/
p368
aV/foatdesign/face/
p369
aV/hellofigandsalt/face-%2B-form/
p370
aV/becksbrown/face/
p371
aV/lauramcdew/face/
p372
aV/punktd/face/
p373
aV/heatherowens/face/
p374
aV/robinhilleary/face/
p375
aV/teiraila/face/
p376
aV/veronique15/face/
p377
aV/elllielauren/face/
p378
aV/laughingstars/face/
p379
aV/jonibjohnson/face/
p380
aV/ashhulley/face/
p381
aV/moon16/face/
p382
aV/csrn/face/
p383
aV/BobHefferan/face/
p384
aV/nancyisabelle/face/
p385
aV/catermillar/face/
p386
aV/mae_zaragoza/face/
p387
aV/c57234/face/
p388
aV/fotiadi/face/
p389
aV/delirousinparis/face/
p390
aV/jhijo0948/face/
p391
aV/valwieser/face/
p392
aV/caitkitt/face/
p393
aV/nataliebnelson/face/
p394
aV/romaisvaje/face/
p395
aV/mastersphotoqc/face/
p396
aV/ismay/face/
p397
aV/onoMARApoeia/face/
p398
aV/neusafujimoto/face/
p399
aV/helios3d/face/
p400
aV/cloud0227/face/
p401
aV/sophiedetermann/face/
p402
aV/sarahlpugliese/face/
p403
aV/freepeople/face/
p404
aV/DickHarends/face/
p405
aV/heraaban/face/
p406
aV/ilricettario/face/
p407
aV/dolorousjewelry/face/
p408
aV/somethingpretty/face/
p409
aV/valvon/face/
p410
aV/summerdeforest/face/
p411
aV/magnobottrel/face/
p412
aV/oldflavour/face/
p413
aV/nashtrevelyan/face/
p414
aV/jussdrinktea/face/
p415
aV/ariscottiepup/face/
p416
aV/AliciaNeuman/face/
p417
aV/holstkarall/face/
p418
aV/cesaramon/face/
p419
aV/annanaphtali/face/
p420
aV/yassi80/face-painting/
p421
aV/elizabethdj1989/face/
p422
aV/missmonahan88/face/
p423
aV/heidekl/face/
p424
aV/laylavattel/face/
p425
aV/melody_wear/face/
p426
aV/snjoka/face/
p427
aV/bholzke/face/
p428
aV/shazach27/face/
p429
aV/inolai/face/
p430
aV/sam_dawn/face/
p431
aV/kaityhoff/face/
p432
aV/b4technicolor/face/
p433
aV/bethawho/face/
p434
aV/byrdiebeautyau/face/
p435
aV/fergusonstace/face/
p436
aV/ivy_thompson/face/
p437
aV/kanArtomo/face/
p438
aV/myrodoodles/face/
p439
aV/lillesmy/face/
p440
aV/gronandwhite/face/
p441
aV/jjulishka/face/
p442
aV/frannyg/face/
p443
aV/held76/face-painting/
p444
aV/eujinrhee/about-face/
p445
aV/designboom/faceades/
p446
aV/Peachhh/face/
p447
aV/taykwas/face/
p448
aV/fumikamigama/face/
p449
aV/Wellapptdesk/face-it/
p450
aV/michewats/face/
p451
aV/allybeeeee/face/
p452
aV/tkclovesrwc/face/
p453
aV/nannabug/face/
p454
aV/rrrenly/face/
p455
aV/colorymck/face/
p456
aV/oliviayichen/face/
p457
aV/laudydaudy/face/
p458
aV/hopeless/face/
p459
aV/ayonnaise/face%2B/
p460
aV/20somethingplus/face/
p461
aV/spacekittens/face/
p462
aV/stellafinley/face/
p463
aV/wanchong/face/
p464
aV/pinkliza/face/
p465
aV/diamondkay90/face/
p466
aV/beebarkandmoss/face/
p467
aV/getyourbestbody/face/
p468
aV/realovespink/face/
p469
aV/Five12Studio/face/
p470
aV/t3ssanoble/face/
p471
aV/tonnadawn/face/
p472
aV/robynical/face/
p473
aV/lidiaghazaryan/face~/
p474
aV/jillcamos/face/
p475
aV/marcsublet/faces/
p476
aV/kathleenadantas/face/
p477
aV/bohobrewco/face/
p478
aV/adnufgablisey/face/
p479
aV/LaRecouze/face-%C3%A0-face-2/
p480
aV/peachcheek/face/
p481
aV/KlaraMP/face/
p482
aV/candidlycreole/face/
p483
aV/staceyconlan/face/
p484
aV/ahsheegrek/face/
p485
aV/hello_bombshell/face/
p486
aV/oliviasimons/face/
p487
aV/kseniakil1995/face/
p488
aV/frannieshell/face/
p489
aV/lbartkute/face/
p490
aV/katexarmstrong/face/
p491
aV/courtneyhyder/face/
p492
aV/alishacassandra/face/
p493
aV/galleryjeon/face/
p494
aV/breannecsolomon/face/
p495
aV/pohlymnie/face/
p496
aV/odeforest/face/
p497
aV/roladd/face/
p498
aV/joneshairdesign/face/
p499
aV/hcrossed/face/
p500
aV/etlerves/face/
p501
aV/nadc/face/
p502
aV/zillaa/face/
p503
aV/LouLouBARE/face/
p504
aV/camillawhitman/face/
p505
aV/milknhoneyblog/face/
p506
aV/adrithoeny/face/
p507
aV/savannahnall/face/
p508
aV/leightonrenee/face/
p509
aV/alexisjwho/face/
p510
aV/savannahfm/face/
p511
aV/minjiii/face/
p512
aV/pesus/face/
p513
aV/bambibonbon/face/
p514
aV/youyunart/face/
p515
aV/buxxxyyysi/face/
p516
aV/kajadons/face/
p517
aV/anantinomy/face/
p518
aV/thestripeny/about-face/
p519
aV/kaidaria/face/
p520
aV/jpete/face/
p521
aV/marshaedrea/face/
p522
aV/kira4kasper/face/
p523
aV/laurenenglish/face/
p524
aV/intransfer/face/
p525
aV/darlamaxine/face/
p526
aV/hellokristiee/face/
p527
aV/denivev/face/
p528
aV/pnali/face/
p529
aV/sungchaey/face/
p530
aV/islaay/face/
p531
aV/emiloumitchell/face/
p532
aV/ksavrani/face/
p533
aV/nicoleloree/face/
p534
aV/melissajsoule/face/
p535
a.